; Function Attrs: nounwind uwtable
define internal i32 @config_output(ptr noundef captures(none) %0) #1 {
  %2 = load ptr, ptr %0, align 8, !tbaa !46
  %3 = getelementptr inbounds nuw i8, ptr %2, i64 72
  %4 = load ptr, ptr %3, align 8, !tbaa !4
  %5 = getelementptr inbounds nuw i8, ptr %2, i64 32
  %6 = load ptr, ptr %5, align 8, !tbaa !41
  %7 = load ptr, ptr %6, align 8, !tbaa !38
  %8 = getelementptr inbounds nuw i8, ptr %4, i64 68
  %9 = load i32, ptr %8, align 4, !tbaa !34
  %.not = icmp eq i32 %9, 0
  br i1 %.not, label %10, label %._crit_edge54

._crit_edge54:                                    ; preds = %1
  %.phi.trans.insert55 = getelementptr inbounds nuw i8, ptr %7, i64 40
  %.pre56 = load i32, ptr %.phi.trans.insert55, align 8, !tbaa !53
  %.phi.trans.insert57 = getelementptr inbounds nuw i8, ptr %7, i64 44
  %.pre58 = load i32, ptr %.phi.trans.insert57, align 4, !tbaa !54
  br label %26

10:                                               ; preds = %1
  %11 = getelementptr inbounds nuw i8, ptr %6, i64 8
  %12 = load ptr, ptr %11, align 8, !tbaa !38
  %13 = getelementptr inbounds nuw i8, ptr %7, i64 40
  %14 = load i32, ptr %13, align 8, !tbaa !53
  %15 = getelementptr inbounds nuw i8, ptr %12, i64 40
  %16 = load i32, ptr %15, align 8, !tbaa !53
  %.not49 = icmp eq i32 %14, %16
  %17 = getelementptr inbounds nuw i8, ptr %7, i64 44
  %18 = load i32, ptr %17, align 4, !tbaa !54
  %19 = getelementptr inbounds nuw i8, ptr %12, i64 44
  %20 = load i32, ptr %19, align 4, !tbaa !54
  %.not50 = icmp eq i32 %18, %20
  %or.cond = select i1 %.not49, i1 %.not50, i1 false
  br i1 %or.cond, label %26, label %._crit_edge

._crit_edge:                                      ; preds = %10
  %21 = getelementptr inbounds nuw i8, ptr %2, i64 24
  %22 = load ptr, ptr %21, align 8, !tbaa !55
  %23 = load ptr, ptr %22, align 8, !tbaa !32
  %24 = getelementptr inbounds nuw i8, ptr %22, i64 48
  %25 = load ptr, ptr %24, align 8, !tbaa !32
  tail call void (ptr, i32, ptr, ...) @av_log(ptr noundef nonnull %2, i32 noundef 16, ptr noundef nonnull @.str.5, ptr noundef %23, i32 noundef %14, i32 noundef %18, ptr noundef %25, i32 noundef %16, i32 noundef %20) #11
  br label %61

26:                                               ; preds = %10, %._crit_edge54
  %27 = phi i32 [ %.pre58, %._crit_edge54 ], [ %18, %10 ]
  %28 = phi i32 [ %.pre56, %._crit_edge54 ], [ %14, %10 ]
  %.047 = phi ptr [ undef, %._crit_edge54 ], [ %12, %10 ]
  %29 = getelementptr inbounds nuw i8, ptr %0, i64 40
  store i32 %28, ptr %29, align 8, !tbaa !53
  %30 = getelementptr inbounds nuw i8, ptr %0, i64 44
  store i32 %27, ptr %30, align 4, !tbaa !54
  %31 = getelementptr inbounds nuw i8, ptr %0, i64 96
  %32 = getelementptr inbounds nuw i8, ptr %7, i64 96
  %33 = load i64, ptr %32, align 8
  store i64 %33, ptr %31, align 8
  %34 = getelementptr inbounds nuw i8, ptr %0, i64 48
  %35 = getelementptr inbounds nuw i8, ptr %7, i64 48
  %36 = load i64, ptr %35, align 8
  store i64 %36, ptr %34, align 8
  %37 = getelementptr inbounds nuw i8, ptr %0, i64 264
  %38 = getelementptr inbounds nuw i8, ptr %7, i64 264
  %39 = load i64, ptr %38, align 8
  store i64 %39, ptr %37, align 8
  %40 = load i32, ptr %8, align 4, !tbaa !34
  %.not51 = icmp eq i32 %40, 0
  br i1 %.not51, label %41, label %61

41:                                               ; preds = %26
  %42 = getelementptr inbounds nuw i8, ptr %4, i64 88
  %43 = tail call i32 @ff_framesync_init(ptr noundef nonnull %42, ptr noundef nonnull %2, i32 noundef 2) #11
  %44 = icmp slt i32 %43, 0
  br i1 %44, label %61, label %45

45:                                               ; preds = %41
  %46 = getelementptr inbounds nuw i8, ptr %4, i64 160
  %47 = load ptr, ptr %46, align 8, !tbaa !56
  %48 = getelementptr inbounds nuw i8, ptr %47, i64 8
  %49 = load i64, ptr %32, align 8
  store i64 %49, ptr %48, align 8
  %50 = getelementptr inbounds nuw i8, ptr %47, i64 64
  %51 = getelementptr inbounds nuw i8, ptr %47, i64 72
  %52 = getelementptr inbounds nuw i8, ptr %.047, i64 96
  %53 = load i64, ptr %52, align 8
  store i64 %53, ptr %51, align 8
  %54 = getelementptr inbounds nuw i8, ptr %47, i64 52
  store i32 1, ptr %54, align 4, !tbaa !57
  store i32 0, ptr %47, align 8, !tbaa !59
  %55 = getelementptr inbounds nuw i8, ptr %47, i64 4
  store i32 2, ptr %55, align 4, !tbaa !60
  %56 = getelementptr inbounds nuw i8, ptr %47, i64 116
  store i32 1, ptr %56, align 4, !tbaa !57
  store i32 0, ptr %50, align 8, !tbaa !59
  %57 = getelementptr inbounds nuw i8, ptr %47, i64 68
  store i32 2, ptr %57, align 4, !tbaa !60
  %58 = getelementptr inbounds nuw i8, ptr %4, i64 136
  store ptr %4, ptr %58, align 8, !tbaa !61
  %59 = getelementptr inbounds nuw i8, ptr %4, i64 128
  store ptr @process_frame, ptr %59, align 8, !tbaa !62
  %60 = tail call i32 @ff_framesync_configure(ptr noundef nonnull %42) #11
  br label %61

61:                                               ; preds = %41, %26, %45, %._crit_edge
  %.0 = phi i32 [ %60, %45 ], [ -22, %._crit_edge ], [ 0, %26 ], [ %43, %41 ]
  ret i32 %.0
}